target datalayout = "e-m:e-p270:32:32-p271:32:32-p272:64:64-i64:64-i128:128-f80:128-n8:16:32:64-S128"
target triple = "x86_64-pc-linux-gnu"

%class.Register = type { i32 }
%"class.Register::RegisterImpl" = type { i8 }
%class.AbstractAssembler = type { ptr, ptr, ptr }
%class.CodeSection = type { ptr, ptr, ptr, ptr, ptr, ptr, ptr, ptr, i8, i8, i32, i8, ptr }

@all_RegisterImpls = external hidden global [33 x %"class.Register::RegisterImpl"], align 16

; Function Attrs: mustprogress nounwind uwtable
define linkonce_odr hidden void @_ZN11CodeSection7set_endEPh(ptr noundef nonnull align 8 dereferenceable(88) %0, ptr noundef %1) #1 comdat align 2 {
  %3 = alloca ptr, align 8
  %4 = alloca ptr, align 8
  store ptr %0, ptr %3, align 8
  store ptr %1, ptr %4, align 8
  %5 = load ptr, ptr %3, align 8
  %6 = load ptr, ptr %4, align 8
  %7 = getelementptr inbounds %class.CodeSection, ptr %5, i32 0, i32 2
  store ptr %6, ptr %7, align 8
  ret void
}

; Function Attrs: mustprogress nounwind uwtable
define linkonce_odr hidden noundef ptr @_ZNK11CodeSection3endEv(ptr noundef nonnull align 8 dereferenceable(88) %0) #1 comdat align 2 {
  %2 = alloca ptr, align 8
  store ptr %0, ptr %2, align 8
  %3 = load ptr, ptr %2, align 8
  %4 = getelementptr inbounds %class.CodeSection, ptr %3, i32 0, i32 2
  %5 = load ptr, ptr %4, align 8
  ret ptr %5
}

; Function Attrs: mustprogress nounwind uwtable
define linkonce_odr hidden noundef zeroext i8 @_Z12checked_castIhiET_T0_(i32 noundef %0) #1 comdat {
  %2 = alloca i32, align 4
  %3 = alloca i8, align 1
  store i32 %0, ptr %2, align 4
  %4 = load i32, ptr %2, align 4
  %5 = trunc i32 %4 to i8
  store i8 %5, ptr %3, align 1
  %6 = load i8, ptr %3, align 1
  ret i8 %6
}

; Function Attrs: mustprogress nounwind uwtable
define linkonce_odr hidden void @_ZN11CodeSection9emit_int8Eh(ptr noundef nonnull align 8 dereferenceable(88) %0, i8 noundef zeroext %1) #1 comdat align 2 {
  %3 = alloca ptr, align 8
  %4 = alloca i8, align 1
  %5 = alloca ptr, align 8
  store ptr %0, ptr %3, align 8
  store i8 %1, ptr %4, align 1
  %6 = load ptr, ptr %3, align 8
  %7 = call noundef ptr @_ZNK11CodeSection3endEv(ptr noundef nonnull align 8 dereferenceable(88) %6)
  store ptr %7, ptr %5, align 8
  %8 = load i8, ptr %4, align 1
  %9 = load ptr, ptr %5, align 8
  %10 = getelementptr inbounds i8, ptr %9, i32 1
  store ptr %10, ptr %5, align 8
  store i8 %8, ptr %9, align 1
  %11 = load ptr, ptr %5, align 8
  call void @_ZN11CodeSection7set_endEPh(ptr noundef nonnull align 8 dereferenceable(88) %6, ptr noundef %11)
  ret void
}

; Function Attrs: mustprogress nounwind uwtable
define hidden void @_ZN9Assembler8prefix16Ei(ptr noundef nonnull align 8 dereferenceable(40) %0, i32 noundef %1) #1 align 2 {
  %3 = alloca ptr, align 8
  %4 = alloca i32, align 4
  store ptr %0, ptr %3, align 8
  store i32 %1, ptr %4, align 4
  %5 = load ptr, ptr %3, align 8
  %6 = load i32, ptr %4, align 4
  %7 = and i32 %6, 65280
  %8 = ashr i32 %7, 8
  call void @_ZN17AbstractAssembler9emit_int8Ei(ptr noundef nonnull align 8 dereferenceable(24) %5, i32 noundef %8)
  %9 = load i32, ptr %4, align 4
  %10 = and i32 %9, 255
  call void @_ZN17AbstractAssembler9emit_int8Ei(ptr noundef nonnull align 8 dereferenceable(24) %5, i32 noundef %10)
  ret void
}

; Function Attrs: mustprogress nounwind uwtable
define hidden noundef i32 @_ZN9Assembler20get_base_prefix_bitsEi(ptr noundef nonnull align 8 dereferenceable(40) %0, i32 noundef %1) #1 align 2 {
  %3 = alloca ptr, align 8
  %4 = alloca i32, align 4
  %5 = alloca i32, align 4
  store ptr %0, ptr %3, align 8
  store i32 %1, ptr %4, align 4
  store i32 0, ptr %5, align 4
  %6 = load i32, ptr %4, align 4
  %7 = and i32 %6, 16
  %8 = icmp ne i32 %7, 0
  br i1 %8, label %9, label %12

9:                                                ; preds = %2
  %10 = load i32, ptr %5, align 4
  %11 = or i32 %10, 16
  store i32 %11, ptr %5, align 4
  br label %12

12:                                               ; preds = %9, %2
  %13 = load i32, ptr %4, align 4
  %14 = and i32 %13, 8
  %15 = icmp ne i32 %14, 0
  br i1 %15, label %16, label %19

16:                                               ; preds = %12
  %17 = load i32, ptr %5, align 4
  %18 = or i32 %17, 1
  store i32 %18, ptr %5, align 4
  br label %19

19:                                               ; preds = %16, %12
  %20 = load i32, ptr %5, align 4
  ret i32 %20
}

; Function Attrs: mustprogress nounwind uwtable
define hidden noundef i32 @_ZN9Assembler19get_reg_prefix_bitsEi(ptr noundef nonnull align 8 dereferenceable(40) %0, i32 noundef %1) #1 align 2 {
  %3 = alloca ptr, align 8
  %4 = alloca i32, align 4
  %5 = alloca i32, align 4
  store ptr %0, ptr %3, align 8
  store i32 %1, ptr %4, align 4
  store i32 0, ptr %5, align 4
  %6 = load i32, ptr %4, align 4
  %7 = and i32 %6, 16
  %8 = icmp ne i32 %7, 0
  br i1 %8, label %9, label %12

9:                                                ; preds = %2
  %10 = load i32, ptr %5, align 4
  %11 = or i32 %10, 64
  store i32 %11, ptr %5, align 4
  br label %12

12:                                               ; preds = %9, %2
  %13 = load i32, ptr %4, align 4
  %14 = and i32 %13, 8
  %15 = icmp ne i32 %14, 0
  br i1 %15, label %16, label %19

16:                                               ; preds = %12
  %17 = load i32, ptr %5, align 4
  %18 = or i32 %17, 4
  store i32 %18, ptr %5, align 4
  br label %19

19:                                               ; preds = %16, %12
  %20 = load i32, ptr %5, align 4
  ret i32 %20
}

; Function Attrs: mustprogress nounwind uwtable
define linkonce_odr hidden void @_ZN11CodeSection10emit_int16Ehh(ptr noundef nonnull align 8 dereferenceable(88) %0, i8 noundef zeroext %1, i8 noundef zeroext %2) #1 comdat align 2 {
  %4 = alloca ptr, align 8
  %5 = alloca i8, align 1
  %6 = alloca i8, align 1
  %7 = alloca ptr, align 8
  store ptr %0, ptr %4, align 8
  store i8 %1, ptr %5, align 1
  store i8 %2, ptr %6, align 1
  %8 = load ptr, ptr %4, align 8
  %9 = call noundef ptr @_ZNK11CodeSection3endEv(ptr noundef nonnull align 8 dereferenceable(88) %8)
  store ptr %9, ptr %7, align 8
  %10 = load i8, ptr %5, align 1
  %11 = load ptr, ptr %7, align 8
  %12 = getelementptr inbounds i8, ptr %11, i32 1
  store ptr %12, ptr %7, align 8
  store i8 %10, ptr %11, align 1
  %13 = load i8, ptr %6, align 1
  %14 = load ptr, ptr %7, align 8
  %15 = getelementptr inbounds i8, ptr %14, i32 1
  store ptr %15, ptr %7, align 8
  store i8 %13, ptr %14, align 1
  %16 = load ptr, ptr %7, align 8
  call void @_ZN11CodeSection7set_endEPh(ptr noundef nonnull align 8 dereferenceable(88) %8, ptr noundef %16)
  ret void
}

; Function Attrs: mustprogress nounwind uwtable
define linkonce_odr hidden noundef zeroext i8 @_ZNK17AbstractAssembler11narrow_castIhEET_i(ptr noundef nonnull align 8 dereferenceable(24) %0, i32 noundef %1) #1 comdat align 2 {
  %3 = alloca i8, align 1
  %4 = alloca ptr, align 8
  %5 = alloca i32, align 4
  store ptr %0, ptr %4, align 8
  store i32 %1, ptr %5, align 4
  %6 = load i32, ptr %5, align 4
  %7 = icmp slt i32 %6, 0
  br i1 %7, label %8, label %11

8:                                                ; preds = %2
  %9 = load i32, ptr %5, align 4
  %10 = trunc i32 %9 to i8
  store i8 %10, ptr %3, align 1
  br label %14

11:                                               ; preds = %2
  %12 = load i32, ptr %5, align 4
  %13 = call noundef zeroext i8 @_Z12checked_castIhiET_T0_(i32 noundef %12)
  store i8 %13, ptr %3, align 1
  br label %14

14:                                               ; preds = %11, %8
  %15 = load i8, ptr %3, align 1
  ret i8 %15
}

; Function Attrs: mustprogress nounwind uwtable
define linkonce_odr hidden noundef ptr @_ZNK17AbstractAssembler12code_sectionEv(ptr noundef nonnull align 8 dereferenceable(24) %0) #1 comdat align 2 {
  %2 = alloca ptr, align 8
  store ptr %0, ptr %2, align 8
  %3 = load ptr, ptr %2, align 8
  %4 = getelementptr inbounds %class.AbstractAssembler, ptr %3, i32 0, i32 1
  %5 = load ptr, ptr %4, align 8
  ret ptr %5
}

; Function Attrs: mustprogress nounwind uwtable
define linkonce_odr hidden void @_ZN17AbstractAssembler9emit_int8Ei(ptr noundef nonnull align 8 dereferenceable(24) %0, i32 noundef %1) #1 comdat align 2 {
  %3 = alloca ptr, align 8
  %4 = alloca i32, align 4
  store ptr %0, ptr %3, align 8
  store i32 %1, ptr %4, align 4
  %5 = load ptr, ptr %3, align 8
  %6 = call noundef ptr @_ZNK17AbstractAssembler12code_sectionEv(ptr noundef nonnull align 8 dereferenceable(24) %5)
  %7 = load i32, ptr %4, align 4
  %8 = call noundef zeroext i8 @_ZNK17AbstractAssembler11narrow_castIhEET_i(ptr noundef nonnull align 8 dereferenceable(24) %5, i32 noundef %7)
  call void @_ZN11CodeSection9emit_int8Eh(ptr noundef nonnull align 8 dereferenceable(88) %6, i8 noundef zeroext %8)
  ret void
}

; Function Attrs: mustprogress nounwind uwtable
define hidden noundef i32 @_ZN9Assembler22prefix_and_encode_rex2Eiii(ptr noundef nonnull align 8 dereferenceable(40) %0, i32 noundef %1, i32 noundef %2, i32 noundef %3) #1 align 2 {
  %5 = alloca ptr, align 8
  %6 = alloca i32, align 4
  %7 = alloca i32, align 4
  %8 = alloca i32, align 4
  %9 = alloca i32, align 4
  store ptr %0, ptr %5, align 8
  store i32 %1, ptr %6, align 4
  store i32 %2, ptr %7, align 4
  store i32 %3, ptr %8, align 4
  %10 = load ptr, ptr %5, align 8
  %11 = load i32, ptr %8, align 4
  store i32 %11, ptr %9, align 4
  %12 = load i32, ptr %6, align 4
  %13 = call noundef i32 @_ZN9Assembler19get_reg_prefix_bitsEi(ptr noundef nonnull align 8 dereferenceable(40) %10, i32 noundef %12)
  %14 = load i32, ptr %9, align 4
  %15 = or i32 %14, %13
  store i32 %15, ptr %9, align 4
  %16 = load i32, ptr %7, align 4
  %17 = call noundef i32 @_ZN9Assembler20get_base_prefix_bitsEi(ptr noundef nonnull align 8 dereferenceable(40) %10, i32 noundef %16)
  %18 = load i32, ptr %9, align 4
  %19 = or i32 %18, %17
  store i32 %19, ptr %9, align 4
  %20 = load i32, ptr %6, align 4
  %21 = and i32 %20, 7
  store i32 %21, ptr %6, align 4
  %22 = load i32, ptr %7, align 4
  %23 = and i32 %22, 7
  store i32 %23, ptr %7, align 4
  %24 = load i32, ptr %9, align 4
  %25 = or i32 54528, %24
  call void @_ZN9Assembler8prefix16Ei(ptr noundef nonnull align 8 dereferenceable(40) %10, i32 noundef %25)
  %26 = load i32, ptr %6, align 4
  %27 = shl i32 %26, 3
  %28 = load i32, ptr %7, align 4
  %29 = or i32 %27, %28
  ret i32 %29
}

; Function Attrs: mustprogress nounwind uwtable
define linkonce_odr hidden noundef i32 @_Z12checked_castIilET_T0_(i64 noundef %0) #1 comdat {
  %2 = alloca i64, align 8
  %3 = alloca i32, align 4
  store i64 %0, ptr %2, align 8
  %4 = load i64, ptr %2, align 8
  %5 = trunc i64 %4 to i32
  store i32 %5, ptr %3, align 4
  %6 = load i32, ptr %3, align 4
  ret i32 %6
}

; Function Attrs: mustprogress nounwind uwtable
define linkonce_odr hidden void @_ZN17AbstractAssembler10emit_int16Eii(ptr noundef nonnull align 8 dereferenceable(24) %0, i32 noundef %1, i32 noundef %2) #1 comdat align 2 {
  %4 = alloca ptr, align 8
  %5 = alloca i32, align 4
  %6 = alloca i32, align 4
  store ptr %0, ptr %4, align 8
  store i32 %1, ptr %5, align 4
  store i32 %2, ptr %6, align 4
  %7 = load ptr, ptr %4, align 8
  %8 = call noundef ptr @_ZNK17AbstractAssembler12code_sectionEv(ptr noundef nonnull align 8 dereferenceable(24) %7)
  %9 = load i32, ptr %5, align 4
  %10 = call noundef zeroext i8 @_ZNK17AbstractAssembler11narrow_castIhEET_i(ptr noundef nonnull align 8 dereferenceable(24) %7, i32 noundef %9)
  %11 = load i32, ptr %6, align 4
  %12 = call noundef zeroext i8 @_ZNK17AbstractAssembler11narrow_castIhEET_i(ptr noundef nonnull align 8 dereferenceable(24) %7, i32 noundef %11)
  call void @_ZN11CodeSection10emit_int16Ehh(ptr noundef nonnull align 8 dereferenceable(88) %8, i8 noundef zeroext %10, i8 noundef zeroext %12)
  ret void
}

; Function Attrs: mustprogress nounwind uwtable
define internal noundef i32 @_ZL6encode8Register(i32 %0) #1 {
  %2 = alloca %class.Register, align 4
  %3 = getelementptr inbounds %class.Register, ptr %2, i32 0, i32 0
  store i32 %0, ptr %3, align 4
  %4 = call noundef ptr @_ZNK8RegisterptEv(ptr noundef nonnull align 4 dereferenceable(4) %2)
  %5 = call noundef i32 @_ZNK8Register12RegisterImpl8encodingEv(ptr noundef nonnull align 1 dereferenceable(1) %4)
  %6 = and i32 %5, 7
  ret i32 %6
}

; Function Attrs: mustprogress nounwind uwtable
define hidden void @_ZN9Assembler6prefixENS_6PrefixE(ptr noundef nonnull align 8 dereferenceable(40) %0, i32 noundef %1) #1 align 2 {
  %3 = alloca ptr, align 8
  %4 = alloca i32, align 4
  store ptr %0, ptr %3, align 8
  store i32 %1, ptr %4, align 4
  %5 = load ptr, ptr %3, align 8
  %6 = load i32, ptr %4, align 4
  call void @_ZN17AbstractAssembler9emit_int8Ei(ptr noundef nonnull align 8 dereferenceable(24) %5, i32 noundef %6)
  ret void
}

; Function Attrs: mustprogress nounwind uwtable
define hidden noundef i32 @_ZN9Assembler23prefixq_and_encode_rex2Eiib(ptr noundef nonnull align 8 dereferenceable(40) %0, i32 noundef %1, i32 noundef %2, i1 noundef zeroext %3) #1 align 2 {
  %5 = alloca ptr, align 8
  %6 = alloca i32, align 4
  %7 = alloca i32, align 4
  %8 = alloca i8, align 1
  %9 = alloca i32, align 4
  store ptr %0, ptr %5, align 8
  store i32 %1, ptr %6, align 4
  store i32 %2, ptr %7, align 4
  %10 = zext i1 %3 to i8
  store i8 %10, ptr %8, align 1
  %11 = load ptr, ptr %5, align 8
  %12 = load i8, ptr %8, align 1
  %13 = trunc i8 %12 to i1
  %14 = select i1 %13, i32 128, i32 0
  %15 = or i32 8, %14
  store i32 %15, ptr %9, align 4
  %16 = load i32, ptr %6, align 4
  %17 = load i32, ptr %7, align 4
  %18 = load i32, ptr %9, align 4
  %19 = call noundef i32 @_ZN9Assembler22prefix_and_encode_rex2Eiii(ptr noundef nonnull align 8 dereferenceable(40) %11, i32 noundef %16, i32 noundef %17, i32 noundef %18)
  ret i32 %19
}

; Function Attrs: mustprogress nounwind uwtable
define linkonce_odr hidden noundef i32 @_ZNK8Register12RegisterImpl12raw_encodingEv(ptr noundef nonnull align 1 dereferenceable(1) %0) #1 comdat align 2 {
  %2 = alloca ptr, align 8
  store ptr %0, ptr %2, align 8
  %3 = load ptr, ptr %2, align 8
  %4 = call noundef ptr @_ZN8Register12RegisterImpl5firstEv()
  %5 = ptrtoint ptr %3 to i64
  %6 = ptrtoint ptr %4 to i64
  %7 = sub i64 %5, %6
  %8 = call noundef i32 @_Z12checked_castIilET_T0_(i64 noundef %7)
  ret i32 %8
}

; Function Attrs: mustprogress nounwind uwtable
define linkonce_odr hidden noundef ptr @_ZN8Register12RegisterImpl5firstEv() #1 comdat align 2 {
  ret ptr getelementptr inbounds (%"class.Register::RegisterImpl", ptr @all_RegisterImpls, i64 1)
}

; Function Attrs: mustprogress nounwind uwtable
define hidden void @_ZN9Assembler10emit_arithEii8RegisterS0_(ptr noundef nonnull align 8 dereferenceable(40) %0, i32 noundef %1, i32 noundef %2, i32 %3, i32 %4) #1 align 2 {
  %6 = alloca %class.Register, align 4
  %7 = alloca %class.Register, align 4
  %8 = alloca ptr, align 8
  %9 = alloca i32, align 4
  %10 = alloca i32, align 4
  %11 = alloca %class.Register, align 4
  %12 = alloca %class.Register, align 4
  %13 = getelementptr inbounds %class.Register, ptr %6, i32 0, i32 0
  store i32 %3, ptr %13, align 4
  %14 = getelementptr inbounds %class.Register, ptr %7, i32 0, i32 0
  store i32 %4, ptr %14, align 4
  store ptr %0, ptr %8, align 8
  store i32 %1, ptr %9, align 4
  store i32 %2, ptr %10, align 4
  %15 = load ptr, ptr %8, align 8
  %16 = load i32, ptr %9, align 4
  %17 = load i32, ptr %10, align 4
  call void @llvm.memcpy.p0.p0.i64(ptr align 4 %11, ptr align 4 %6, i64 4, i1 false)
  %18 = getelementptr inbounds %class.Register, ptr %11, i32 0, i32 0
  %19 = load i32, ptr %18, align 4
  %20 = call noundef i32 @_ZL6encode8Register(i32 %19)
  %21 = shl i32 %20, 3
  %22 = or i32 %17, %21
  call void @llvm.memcpy.p0.p0.i64(ptr align 4 %12, ptr align 4 %7, i64 4, i1 false)
  %23 = getelementptr inbounds %class.Register, ptr %12, i32 0, i32 0
  %24 = load i32, ptr %23, align 4
  %25 = call noundef i32 @_ZL6encode8Register(i32 %24)
  %26 = or i32 %22, %25
  call void @_ZN17AbstractAssembler10emit_int16Eii(ptr noundef nonnull align 8 dereferenceable(24) %15, i32 noundef %16, i32 noundef %26)
  ret void
}

; Function Attrs: mustprogress nounwind uwtable
define hidden noundef i32 @_ZN9Assembler18prefixq_and_encodeEiib(ptr noundef nonnull align 8 dereferenceable(40) %0, i32 noundef %1, i32 noundef %2, i1 noundef zeroext %3) #1 align 2 {
  %5 = alloca i32, align 4
  %6 = alloca ptr, align 8
  %7 = alloca i32, align 4
  %8 = alloca i32, align 4
  %9 = alloca i8, align 1
  %10 = alloca i32, align 4
  store ptr %0, ptr %6, align 8
  store i32 %1, ptr %7, align 4
  store i32 %2, ptr %8, align 4
  %11 = zext i1 %3 to i8
  store i8 %11, ptr %9, align 1
  %12 = load ptr, ptr %6, align 8
  %13 = load i32, ptr %7, align 4
  %14 = icmp sge i32 %13, 16
  br i1 %14, label %18, label %15

15:                                               ; preds = %4
  %16 = load i32, ptr %8, align 4
  %17 = icmp sge i32 %16, 16
  br i1 %17, label %18, label %24

18:                                               ; preds = %15, %4
  %19 = load i32, ptr %7, align 4
  %20 = load i32, ptr %8, align 4
  %21 = load i8, ptr %9, align 1
  %22 = trunc i8 %21 to i1
  %23 = call noundef i32 @_ZN9Assembler23prefixq_and_encode_rex2Eiib(ptr noundef nonnull align 8 dereferenceable(40) %12, i32 noundef %19, i32 noundef %20, i1 noundef zeroext %22)
  store i32 %23, ptr %5, align 4
  br label %55

24:                                               ; preds = %15
  %25 = load i32, ptr %7, align 4
  %26 = icmp slt i32 %25, 8
  br i1 %26, label %27, label %35

27:                                               ; preds = %24
  %28 = load i32, ptr %8, align 4
  %29 = icmp slt i32 %28, 8
  br i1 %29, label %30, label %31

30:                                               ; preds = %27
  call void @_ZN9Assembler6prefixENS_6PrefixE(ptr noundef nonnull align 8 dereferenceable(40) %12, i32 noundef 72)
  br label %34

31:                                               ; preds = %27
  call void @_ZN9Assembler6prefixENS_6PrefixE(ptr noundef nonnull align 8 dereferenceable(40) %12, i32 noundef 73)
  %32 = load i32, ptr %8, align 4
  %33 = sub nsw i32 %32, 8
  store i32 %33, ptr %8, align 4
  br label %34

34:                                               ; preds = %31, %30
  br label %45

35:                                               ; preds = %24
  %36 = load i32, ptr %8, align 4
  %37 = icmp slt i32 %36, 8
  br i1 %37, label %38, label %39

38:                                               ; preds = %35
  call void @_ZN9Assembler6prefixENS_6PrefixE(ptr noundef nonnull align 8 dereferenceable(40) %12, i32 noundef 76)
  br label %42

39:                                               ; preds = %35
  call void @_ZN9Assembler6prefixENS_6PrefixE(ptr noundef nonnull align 8 dereferenceable(40) %12, i32 noundef 77)
  %40 = load i32, ptr %8, align 4
  %41 = sub nsw i32 %40, 8
  store i32 %41, ptr %8, align 4
  br label %42

42:                                               ; preds = %39, %38
  %43 = load i32, ptr %7, align 4
  %44 = sub nsw i32 %43, 8
  store i32 %44, ptr %7, align 4
  br label %45

45:                                               ; preds = %42, %34
  %46 = load i8, ptr %9, align 1
  %47 = trunc i8 %46 to i1
  %48 = select i1 %47, i32 3840, i32 0
  store i32 %48, ptr %10, align 4
  %49 = load i32, ptr %10, align 4
  %50 = load i32, ptr %7, align 4
  %51 = shl i32 %50, 3
  %52 = load i32, ptr %8, align 4
  %53 = or i32 %51, %52
  %54 = or i32 %49, %53
  store i32 %54, ptr %5, align 4
  br label %55

55:                                               ; preds = %45, %18
  %56 = load i32, ptr %5, align 4
  ret i32 %56
}

; Function Attrs: mustprogress nounwind uwtable
define linkonce_odr hidden noundef i32 @_ZNK8Register12RegisterImpl8encodingEv(ptr noundef nonnull align 1 dereferenceable(1) %0) #1 comdat align 2 {
  %2 = alloca ptr, align 8
  store ptr %0, ptr %2, align 8
  %3 = load ptr, ptr %2, align 8
  %4 = call noundef i32 @_ZNK8Register12RegisterImpl12raw_encodingEv(ptr noundef nonnull align 1 dereferenceable(1) %3)
  ret i32 %4
}

; Function Attrs: mustprogress nounwind uwtable
define linkonce_odr hidden noundef ptr @_ZNK8RegisterptEv(ptr noundef nonnull align 4 dereferenceable(4) %0) #1 comdat align 2 {
  %2 = alloca ptr, align 8
  store ptr %0, ptr %2, align 8
  %3 = load ptr, ptr %2, align 8
  %4 = call noundef ptr @_ZN8Register12RegisterImpl5firstEv()
  %5 = getelementptr inbounds %class.Register, ptr %3, i32 0, i32 0
  %6 = load i32, ptr %5, align 4
  %7 = sext i32 %6 to i64
  %8 = getelementptr inbounds %"class.Register::RegisterImpl", ptr %4, i64 %7
  ret ptr %8
}

; Function Attrs: mustprogress nounwind uwtable
define hidden void @_ZN9Assembler4subqE8RegisterS0_(ptr noundef nonnull align 8 dereferenceable(40) %0, i32 %1, i32 %2) #1 align 2 {
  %4 = alloca %class.Register, align 4
  %5 = alloca %class.Register, align 4
  %6 = alloca ptr, align 8
  %7 = alloca %class.Register, align 4
  %8 = alloca %class.Register, align 4
  %9 = getelementptr inbounds %class.Register, ptr %4, i32 0, i32 0
  store i32 %1, ptr %9, align 4
  %10 = getelementptr inbounds %class.Register, ptr %5, i32 0, i32 0
  store i32 %2, ptr %10, align 4
  store ptr %0, ptr %6, align 8
  %11 = load ptr, ptr %6, align 8
  %12 = call noundef ptr @_ZNK8RegisterptEv(ptr noundef nonnull align 4 dereferenceable(4) %4)
  %13 = call noundef i32 @_ZNK8Register12RegisterImpl8encodingEv(ptr noundef nonnull align 1 dereferenceable(1) %12)
  %14 = call noundef ptr @_ZNK8RegisterptEv(ptr noundef nonnull align 4 dereferenceable(4) %5)
  %15 = call noundef i32 @_ZNK8Register12RegisterImpl8encodingEv(ptr noundef nonnull align 1 dereferenceable(1) %14)
  %16 = call noundef i32 @_ZN9Assembler18prefixq_and_encodeEiib(ptr noundef nonnull align 8 dereferenceable(40) %11, i32 noundef %13, i32 noundef %15, i1 noundef zeroext false)
  call void @llvm.memcpy.p0.p0.i64(ptr align 4 %7, ptr align 4 %4, i64 4, i1 false)
  call void @llvm.memcpy.p0.p0.i64(ptr align 4 %8, ptr align 4 %5, i64 4, i1 false)
  %17 = getelementptr inbounds %class.Register, ptr %7, i32 0, i32 0
  %18 = load i32, ptr %17, align 4
  %19 = getelementptr inbounds %class.Register, ptr %8, i32 0, i32 0
  %20 = load i32, ptr %19, align 4
  call void @_ZN9Assembler10emit_arithEii8RegisterS0_(ptr noundef nonnull align 8 dereferenceable(40) %11, i32 noundef 43, i32 noundef 192, i32 %18, i32 %20)
  ret void
}