; Function Attrs: mustprogress nofree norecurse nosync nounwind willreturn memory(readwrite, inaccessiblemem: none) uwtable
define hidden void @_ZN9Assembler4subqE8RegisterS0_(ptr nocapture noundef nonnull readonly align 8 dereferenceable(40) %0, i32 %1, i32 %2) local_unnamed_addr #8 align 2 {
  %4 = sext i32 %1 to i64
  %5 = getelementptr inbounds %"class.Register::RegisterImpl", ptr getelementptr inbounds (i8, ptr @all_RegisterImpls, i64 1), i64 %4
  %6 = ptrtoint ptr %5 to i64
  %7 = trunc i64 %6 to i32
  %8 = sub i32 %7, ptrtoint (ptr getelementptr inbounds (i8, ptr @all_RegisterImpls, i64 1) to i32)
  %9 = sext i32 %2 to i64
  %10 = getelementptr inbounds %"class.Register::RegisterImpl", ptr getelementptr inbounds (i8, ptr @all_RegisterImpls, i64 1), i64 %9
  %11 = ptrtoint ptr %10 to i64
  %12 = trunc i64 %11 to i32
  %13 = sub i32 %12, ptrtoint (ptr getelementptr inbounds (i8, ptr @all_RegisterImpls, i64 1) to i32)
  %14 = icmp sgt i32 %8, 15
  %15 = icmp sgt i32 %13, 15
  %or.cond.i = or i1 %14, %15
  br i1 %or.cond.i, label %16, label %34

16:                                               ; preds = %3
  %17 = shl i32 %8, 2
  %spec.select.i.i.i.i = and i32 %17, 64
  %18 = lshr i32 %8, 1
  %19 = and i32 %18, 4
  %20 = and i32 %13, 16
  %21 = lshr i32 %13, 3
  %22 = and i32 %21, 1
  %.1.i10.i.i.i = or disjoint i32 %spec.select.i.i.i.i, %19
  %.1.i.i.i.i = or disjoint i32 %.1.i10.i.i.i, %20
  %23 = or disjoint i32 %.1.i.i.i.i, %22
  %24 = getelementptr inbounds i8, ptr %0, i64 8
  %25 = load ptr, ptr %24, align 8
  %26 = getelementptr inbounds i8, ptr %25, i64 16
  %27 = load ptr, ptr %26, align 8
  %28 = getelementptr inbounds i8, ptr %27, i64 1
  store i8 -43, ptr %27, align 1
  store ptr %28, ptr %26, align 8
  %29 = load ptr, ptr %24, align 8
  %30 = trunc nuw nsw i32 %23 to i8
  %.0.i.i2.i.i.i.i = or disjoint i8 %30, 8
  %31 = getelementptr inbounds i8, ptr %29, i64 16
  %32 = load ptr, ptr %31, align 8
  %33 = getelementptr inbounds i8, ptr %32, i64 1
  store i8 %.0.i.i2.i.i.i.i, ptr %32, align 1
  store ptr %33, ptr %31, align 8
  br label %_ZN9Assembler18prefixq_and_encodeEiib.exit

34:                                               ; preds = %3
  %35 = icmp slt i32 %8, 8
  %36 = icmp slt i32 %13, 8
  %37 = getelementptr inbounds i8, ptr %0, i64 8
  %38 = load ptr, ptr %37, align 8
  %39 = getelementptr inbounds i8, ptr %38, i64 16
  %40 = load ptr, ptr %39, align 8
  %41 = getelementptr inbounds i8, ptr %40, i64 1
  br i1 %35, label %42, label %45

42:                                               ; preds = %34
  br i1 %36, label %43, label %44

43:                                               ; preds = %42
  store i8 72, ptr %40, align 1
  store ptr %41, ptr %39, align 8
  br label %_ZN9Assembler18prefixq_and_encodeEiib.exit

44:                                               ; preds = %42
  store i8 73, ptr %40, align 1
  store ptr %41, ptr %39, align 8
  br label %_ZN9Assembler18prefixq_and_encodeEiib.exit

45:                                               ; preds = %34
  %. = select i1 %36, i8 76, i8 77
  store i8 %., ptr %40, align 1
  store ptr %41, ptr %39, align 8
  br label %_ZN9Assembler18prefixq_and_encodeEiib.exit

_ZN9Assembler18prefixq_and_encodeEiib.exit:       ; preds = %43, %44, %45, %16
  %46 = shl i32 %8, 3
  %47 = and i32 %13, 7
  %48 = or disjoint i32 %47, %46
  %49 = getelementptr inbounds i8, ptr %0, i64 8
  %50 = load ptr, ptr %49, align 8
  %51 = trunc i32 %48 to i8
  %.0.i2.i.i = or i8 %51, -64
  %52 = getelementptr inbounds i8, ptr %50, i64 16
  %53 = load ptr, ptr %52, align 8
  %54 = getelementptr inbounds i8, ptr %53, i64 1
  store i8 43, ptr %53, align 1
  %55 = getelementptr inbounds i8, ptr %53, i64 2
  store i8 %.0.i2.i.i, ptr %54, align 1
  store ptr %55, ptr %52, align 8
  ret void
}